target datalayout = "e-m:e-p270:32:32-p271:32:32-p272:64:64-i64:64-i128:128-f80:128-n8:16:32:64-S128"
target triple = "x86_64-pc-linux-gnu"

%struct.X509_VERIFY_PARAM_st = type { ptr, i64, i32, i64, i32, i32, i32, i32, ptr, ptr, i32, ptr, ptr, i64, ptr, i64 }

@.str = private unnamed_addr constant [34 x i8] c"../openssl/crypto/x509/x509_vpm.c\00", align 1
@__func__.int_X509_VERIFY_PARAM_get0_ip = private unnamed_addr constant [30 x i8] c"int_X509_VERIFY_PARAM_get0_ip\00", align 1

; Function Attrs: nounwind uwtable
define internal ptr @int_X509_VERIFY_PARAM_get0_ip(ptr noundef %0, ptr noundef %1) #0 {
  %3 = alloca ptr, align 8
  %4 = alloca ptr, align 8
  %5 = alloca ptr, align 8
  store ptr %0, ptr %4, align 8, !tbaa !3
  store ptr %1, ptr %5, align 8, !tbaa !43
  %6 = load ptr, ptr %4, align 8, !tbaa !3
  %7 = icmp eq ptr %6, null
  br i1 %7, label %13, label %8

8:                                                ; preds = %2
  %9 = load ptr, ptr %4, align 8, !tbaa !3
  %10 = getelementptr inbounds nuw %struct.X509_VERIFY_PARAM_st, ptr %9, i32 0, i32 14
  %11 = load ptr, ptr %10, align 8, !tbaa !21
  %12 = icmp eq ptr %11, null
  br i1 %12, label %13, label %14

13:                                               ; preds = %8, %2
  call void @ERR_new()
  call void @ERR_set_debug(ptr noundef @.str, i32 noundef 452, ptr noundef @__func__.int_X509_VERIFY_PARAM_get0_ip)
  call void (i32, i32, ptr, ...) @ERR_set_error(i32 noundef 11, i32 noundef 786690, ptr noundef null)
  store ptr null, ptr %3, align 8
  br label %26

14:                                               ; preds = %8
  %15 = load ptr, ptr %5, align 8, !tbaa !43
  %16 = icmp ne ptr %15, null
  br i1 %16, label %17, label %22

17:                                               ; preds = %14
  %18 = load ptr, ptr %4, align 8, !tbaa !3
  %19 = getelementptr inbounds nuw %struct.X509_VERIFY_PARAM_st, ptr %18, i32 0, i32 15
  %20 = load i64, ptr %19, align 8, !tbaa !34
  %21 = load ptr, ptr %5, align 8, !tbaa !43
  store i64 %20, ptr %21, align 8, !tbaa !27
  br label %22

22:                                               ; preds = %17, %14
  %23 = load ptr, ptr %4, align 8, !tbaa !3
  %24 = getelementptr inbounds nuw %struct.X509_VERIFY_PARAM_st, ptr %23, i32 0, i32 14
  %25 = load ptr, ptr %24, align 8, !tbaa !21
  store ptr %25, ptr %3, align 8
  br label %26

26:                                               ; preds = %22, %13
  %27 = load ptr, ptr %3, align 8
  ret ptr %27
}

; Function Attrs: nounwind uwtable
define ptr @X509_VERIFY_PARAM_get1_ip_asc(ptr noundef %0) #0 {
  %2 = alloca ptr, align 8
  %3 = alloca i64, align 8
  %4 = alloca ptr, align 8
  store ptr %0, ptr %2, align 8, !tbaa !3
  call void @llvm.lifetime.start.p0(i64 8, ptr %3) #6
  call void @llvm.lifetime.start.p0(i64 8, ptr %4) #6
  %5 = load ptr, ptr %2, align 8, !tbaa !3
  %6 = call ptr @int_X509_VERIFY_PARAM_get0_ip(ptr noundef %5, ptr noundef %3)
  store ptr %6, ptr %4, align 8, !tbaa !25
  %7 = load ptr, ptr %4, align 8, !tbaa !25
  %8 = icmp eq ptr %7, null
  br i1 %8, label %9, label %10

9:                                                ; preds = %1
  br label %15

10:                                               ; preds = %1
  %11 = load ptr, ptr %4, align 8, !tbaa !25
  %12 = load i64, ptr %3, align 8, !tbaa !27
  %13 = trunc i64 %12 to i32
  %14 = call ptr @ossl_ipaddr_to_asc(ptr noundef %11, i32 noundef %13)
  br label %15

15:                                               ; preds = %10, %9
  %16 = phi ptr [ null, %9 ], [ %14, %10 ]
  call void @llvm.lifetime.end.p0(i64 8, ptr %4) #6
  call void @llvm.lifetime.end.p0(i64 8, ptr %3) #6
  ret ptr %16
}