; Function Attrs: nounwind uwtable
define ptr @X509_VERIFY_PARAM_get1_ip_asc(ptr noundef readonly captures(address_is_null) %0) local_unnamed_addr #0 {
  %2 = icmp eq ptr %0, null
  br i1 %2, label %int_X509_VERIFY_PARAM_get0_ip.exit.thread, label %3

3:                                                ; preds = %1
  %4 = getelementptr inbounds nuw i8, ptr %0, i64 96
  %5 = load ptr, ptr %4, align 8, !tbaa !19
  %6 = icmp eq ptr %5, null
  br i1 %6, label %int_X509_VERIFY_PARAM_get0_ip.exit.thread, label %7

int_X509_VERIFY_PARAM_get0_ip.exit.thread:        ; preds = %1, %3
  tail call void @ERR_new() #9
  tail call void @ERR_set_debug(ptr noundef nonnull @.str, i32 noundef 452, ptr noundef nonnull @__func__.int_X509_VERIFY_PARAM_get0_ip) #9
  tail call void (i32, i32, ptr, ...) @ERR_set_error(i32 noundef 11, i32 noundef 786690, ptr noundef null) #9
  br label %12

7:                                                ; preds = %3
  %8 = getelementptr inbounds nuw i8, ptr %0, i64 104
  %9 = load i64, ptr %8, align 8, !tbaa !29
  %10 = trunc i64 %9 to i32
  %11 = tail call ptr @ossl_ipaddr_to_asc(ptr noundef nonnull %5, i32 noundef %10) #9
  br label %12

12:                                               ; preds = %int_X509_VERIFY_PARAM_get0_ip.exit.thread, %7
  %13 = phi ptr [ %11, %7 ], [ null, %int_X509_VERIFY_PARAM_get0_ip.exit.thread ]
  ret ptr %13
}